; Function Attrs: nounwind uwtable
define dso_local range(i32 -1, 1) i32 @zend_fiber_start(ptr noundef initializes((96, 104)) %0, ptr noundef writeonly captures(address_is_null) %1) local_unnamed_addr #7 {
  %3 = alloca %struct._zend_fiber_transfer, align 8
  %4 = getelementptr inbounds nuw i8, ptr %0, i64 64
  %5 = getelementptr inbounds nuw i8, ptr %0, i64 104
  %6 = load i32, ptr %5, align 8, !tbaa !74
  %7 = icmp eq i32 %6, 0
  tail call void @llvm.assume(i1 %7)
  %8 = load ptr, ptr @zend_ce_fiber, align 8, !tbaa !81
  %9 = load i64, ptr getelementptr inbounds nuw (i8, ptr @executor_globals, i64 1784), align 8, !tbaa !82
  %10 = tail call i32 @zend_fiber_init_context(ptr noundef nonnull %4, ptr noundef %8, ptr noundef nonnull @zend_fiber_execute, i64 noundef %9)
  %11 = icmp eq i32 %10, -1
  br i1 %11, label %37, label %12

12:                                               ; preds = %2
  %13 = getelementptr inbounds nuw i8, ptr %0, i64 176
  store ptr %4, ptr %13, align 8, !tbaa !83
  call void @llvm.lifetime.start.p0(i64 32, ptr nonnull %3) #22
  %14 = load ptr, ptr getelementptr inbounds nuw (i8, ptr @executor_globals, i64 1776), align 8, !tbaa !70, !noalias !84
  %.not.i = icmp eq ptr %14, null
  br i1 %.not.i, label %zend_fiber_resume_internal.exit, label %15

15:                                               ; preds = %12
  %16 = load ptr, ptr getelementptr inbounds nuw (i8, ptr @executor_globals, i64 512), align 8, !tbaa !66, !noalias !84
  %17 = getelementptr inbounds nuw i8, ptr %14, i64 288
  store ptr %16, ptr %17, align 8, !tbaa !87, !noalias !84
  br label %zend_fiber_resume_internal.exit

zend_fiber_resume_internal.exit:                  ; preds = %12, %15
  %18 = load ptr, ptr getelementptr inbounds nuw (i8, ptr @executor_globals, i64 1768), align 8, !tbaa !60, !noalias !84
  %19 = getelementptr inbounds nuw i8, ptr %0, i64 168
  store ptr %18, ptr %19, align 8, !tbaa !88, !noalias !84
  store ptr %0, ptr getelementptr inbounds nuw (i8, ptr @executor_globals, i64 1776), align 8, !tbaa !70, !noalias !84
  tail call void @llvm.experimental.noalias.scope.decl(metadata !89)
  store ptr %4, ptr %3, align 8, !tbaa !57, !alias.scope !89
  %20 = getelementptr inbounds nuw i8, ptr %3, i64 8
  %21 = getelementptr inbounds nuw i8, ptr %3, i64 24
  %22 = getelementptr inbounds nuw i8, ptr %3, i64 16
  call void @llvm.memset.p0.i64(ptr noundef nonnull align 8 dereferenceable(24) %20, i8 0, i64 24, i1 false)
  store i32 1, ptr %22, align 8, !tbaa !56, !alias.scope !89
  call void @zend_fiber_switch_context(ptr noundef nonnull align 8 %3)
  %23 = load i8, ptr %21, align 8, !tbaa !92, !alias.scope !89
  %24 = and i8 %23, 2
  %.not12.i = icmp eq i8 %24, 0
  br i1 %.not12.i, label %zend_fiber_switch_to.exit, label %25, !prof !73

25:                                               ; preds = %zend_fiber_resume_internal.exit
  store ptr null, ptr getelementptr inbounds nuw (i8, ptr @executor_globals, i64 1776), align 8, !tbaa !70, !noalias !89
  call void @_zend_bailout(ptr noundef nonnull @.str.25, i32 noundef 669) #24
  unreachable

zend_fiber_switch_to.exit:                        ; preds = %zend_fiber_resume_internal.exit
  store ptr %14, ptr getelementptr inbounds nuw (i8, ptr @executor_globals, i64 1776), align 8, !tbaa !70, !noalias !84
  %26 = and i8 %23, 1
  %.not.i6 = icmp eq i8 %26, 0
  br i1 %.not.i6, label %31, label %27

27:                                               ; preds = %zend_fiber_switch_to.exit
  %28 = load ptr, ptr %20, align 8, !tbaa !56
  call void @zend_throw_exception_internal(ptr noundef %28) #22
  %29 = load ptr, ptr getelementptr inbounds nuw (i8, ptr @executor_globals, i64 960), align 8, !tbaa !93
  %30 = icmp ne ptr %29, null
  call void @llvm.assume(i1 %30)
  br label %zend_fiber_delegate_transfer_result.exit

31:                                               ; preds = %zend_fiber_switch_to.exit
  %.not11.i = icmp eq ptr %1, null
  br i1 %.not11.i, label %36, label %32

32:                                               ; preds = %31
  %33 = load ptr, ptr %20, align 8, !tbaa !56
  %34 = load i32, ptr %22, align 8, !tbaa !56
  store ptr %33, ptr %1, align 8, !tbaa !56
  %35 = getelementptr inbounds nuw i8, ptr %1, i64 8
  store i32 %34, ptr %35, align 8, !tbaa !56
  br label %zend_fiber_delegate_transfer_result.exit

36:                                               ; preds = %31
  call void @zval_ptr_dtor(ptr noundef nonnull %20) #22
  br label %zend_fiber_delegate_transfer_result.exit

zend_fiber_delegate_transfer_result.exit:         ; preds = %27, %32, %36
  call void @llvm.lifetime.end.p0(i64 32, ptr nonnull %3) #22
  br label %37

37:                                               ; preds = %2, %zend_fiber_delegate_transfer_result.exit
  %.0 = phi i32 [ 0, %zend_fiber_delegate_transfer_result.exit ], [ -1, %2 ]
  ret i32 %.0
}